target datalayout = "e-m:e-p270:32:32-p271:32:32-p272:64:64-i64:64-i128:128-f80:128-n8:16:32:64-S128"
target triple = "x86_64-pc-linux-gnu"

; Function Attrs: nounwind uwtable
define ptr @wc_strsep(ptr noundef %0, ptr noundef %1) #0 {
  %3 = alloca ptr, align 8
  %4 = alloca ptr, align 8
  %5 = alloca ptr, align 8
  %6 = alloca ptr, align 8
  %7 = alloca ptr, align 8
  %8 = alloca ptr, align 8
  %9 = alloca i32, align 4
  store ptr %0, ptr %4, align 8, !tbaa !10
  store ptr %1, ptr %5, align 8, !tbaa !7
  call void @llvm.lifetime.start.p0(i64 8, ptr %6) #7
  call void @llvm.lifetime.start.p0(i64 8, ptr %7) #7
  call void @llvm.lifetime.start.p0(i64 8, ptr %8) #7
  %10 = load ptr, ptr %4, align 8, !tbaa !10
  %11 = icmp eq ptr %10, null
  br i1 %11, label %16, label %12

12:                                               ; preds = %2
  %13 = load ptr, ptr %4, align 8, !tbaa !10
  %14 = load ptr, ptr %13, align 8, !tbaa !7
  %15 = icmp eq ptr %14, null
  br i1 %15, label %16, label %17

16:                                               ; preds = %12, %2
  store ptr null, ptr %3, align 8
  store i32 1, ptr %9, align 4
  br label %56

17:                                               ; preds = %12
  %18 = load ptr, ptr %4, align 8, !tbaa !10
  %19 = load ptr, ptr %18, align 8, !tbaa !7
  store ptr %19, ptr %6, align 8, !tbaa !7
  %20 = load ptr, ptr %6, align 8, !tbaa !7
  store ptr %20, ptr %7, align 8, !tbaa !7
  br label %21

21:                                               ; preds = %50, %17
  %22 = load ptr, ptr %7, align 8, !tbaa !7
  %23 = load i8, ptr %22, align 1, !tbaa !29
  %24 = icmp ne i8 %23, 0
  br i1 %24, label %25, label %53

25:                                               ; preds = %21
  %26 = load ptr, ptr %5, align 8, !tbaa !7
  store ptr %26, ptr %8, align 8, !tbaa !7
  br label %27

27:                                               ; preds = %46, %25
  %28 = load ptr, ptr %8, align 8, !tbaa !7
  %29 = load i8, ptr %28, align 1, !tbaa !29
  %30 = icmp ne i8 %29, 0
  br i1 %30, label %31, label %49

31:                                               ; preds = %27
  %32 = load ptr, ptr %7, align 8, !tbaa !7
  %33 = load i8, ptr %32, align 1, !tbaa !29
  %34 = sext i8 %33 to i32
  %35 = load ptr, ptr %8, align 8, !tbaa !7
  %36 = load i8, ptr %35, align 1, !tbaa !29
  %37 = sext i8 %36 to i32
  %38 = icmp eq i32 %34, %37
  br i1 %38, label %39, label %45

39:                                               ; preds = %31
  %40 = load ptr, ptr %7, align 8, !tbaa !7
  store i8 0, ptr %40, align 1, !tbaa !29
  %41 = load ptr, ptr %7, align 8, !tbaa !7
  %42 = getelementptr inbounds i8, ptr %41, i64 1
  %43 = load ptr, ptr %4, align 8, !tbaa !10
  store ptr %42, ptr %43, align 8, !tbaa !7
  %44 = load ptr, ptr %6, align 8, !tbaa !7
  store ptr %44, ptr %3, align 8
  store i32 1, ptr %9, align 4
  br label %56

45:                                               ; preds = %31
  br label %46

46:                                               ; preds = %45
  %47 = load ptr, ptr %8, align 8, !tbaa !7
  %48 = getelementptr inbounds nuw i8, ptr %47, i32 1
  store ptr %48, ptr %8, align 8, !tbaa !7
  br label %27, !llvm.loop !37

49:                                               ; preds = %27
  br label %50

50:                                               ; preds = %49
  %51 = load ptr, ptr %7, align 8, !tbaa !7
  %52 = getelementptr inbounds nuw i8, ptr %51, i32 1
  store ptr %52, ptr %7, align 8, !tbaa !7
  br label %21, !llvm.loop !38

53:                                               ; preds = %21
  %54 = load ptr, ptr %4, align 8, !tbaa !10
  store ptr null, ptr %54, align 8, !tbaa !7
  %55 = load ptr, ptr %6, align 8, !tbaa !7
  store ptr %55, ptr %3, align 8
  store i32 1, ptr %9, align 4
  br label %56

56:                                               ; preds = %53, %39, %16
  call void @llvm.lifetime.end.p0(i64 8, ptr %8) #7
  call void @llvm.lifetime.end.p0(i64 8, ptr %7) #7
  call void @llvm.lifetime.end.p0(i64 8, ptr %6) #7
  %57 = load ptr, ptr %3, align 8
  ret ptr %57
}