; Function Attrs: nofree norecurse nosync nounwind memory(readwrite, inaccessiblemem: none) uwtable
define ptr @wc_strsep(ptr noundef captures(address_is_null) %0, ptr noundef readonly captures(none) %1) local_unnamed_addr #9 {
  %3 = icmp eq ptr %0, null
  br i1 %3, label %20, label %4

4:                                                ; preds = %2
  %5 = load ptr, ptr %0, align 8, !tbaa !7
  %6 = icmp eq ptr %5, null
  br i1 %6, label %20, label %.preheader24

.preheader24:                                     ; preds = %4
  %7 = load i8, ptr %5, align 1, !tbaa !20
  %.not28 = icmp eq i8 %7, 0
  br i1 %.not28, label %.sink.split, label %.preheader.lr.ph

.preheader.lr.ph:                                 ; preds = %.preheader24
  %8 = load i8, ptr %1, align 1, !tbaa !20
  %.not2326 = icmp eq i8 %8, 0
  br i1 %.not2326, label %.sink.split, label %.preheader

.preheader:                                       ; preds = %.preheader.lr.ph, %._crit_edge
  %9 = phi i8 [ %19, %._crit_edge ], [ %7, %.preheader.lr.ph ]
  %.01829 = phi ptr [ %18, %._crit_edge ], [ %5, %.preheader.lr.ph ]
  br label %13

10:                                               ; preds = %13
  %11 = getelementptr inbounds nuw i8, ptr %.027, i64 1
  %12 = load i8, ptr %11, align 1, !tbaa !20
  %.not23 = icmp eq i8 %12, 0
  br i1 %.not23, label %._crit_edge, label %13, !llvm.loop !26

13:                                               ; preds = %.preheader, %10
  %14 = phi i8 [ %8, %.preheader ], [ %12, %10 ]
  %.027 = phi ptr [ %1, %.preheader ], [ %11, %10 ]
  %15 = icmp eq i8 %9, %14
  br i1 %15, label %16, label %10

16:                                               ; preds = %13
  store i8 0, ptr %.01829, align 1, !tbaa !20
  %17 = getelementptr inbounds nuw i8, ptr %.01829, i64 1
  br label %.sink.split

._crit_edge:                                      ; preds = %10
  %18 = getelementptr inbounds nuw i8, ptr %.01829, i64 1
  %19 = load i8, ptr %18, align 1, !tbaa !20
  %.not = icmp eq i8 %19, 0
  br i1 %.not, label %.sink.split, label %.preheader, !llvm.loop !27

.sink.split:                                      ; preds = %._crit_edge, %.preheader24, %.preheader.lr.ph, %16
  %.sink = phi ptr [ %17, %16 ], [ null, %.preheader.lr.ph ], [ null, %.preheader24 ], [ null, %._crit_edge ]
  store ptr %.sink, ptr %0, align 8, !tbaa !7
  br label %20

20:                                               ; preds = %.sink.split, %2, %4
  %.019 = phi ptr [ null, %4 ], [ null, %2 ], [ %5, %.sink.split ]
  ret ptr %.019
}